target datalayout = "e-m:e-p270:32:32-p271:32:32-p272:64:64-i64:64-i128:128-f80:128-n8:16:32:64-S128"
target triple = "x86_64-pc-linux-gnu"

@CurrentMemoryContext = external global ptr, align 8
@.str = private unnamed_addr constant [15 x i8] c"TZParserMemory\00", align 1
@.str.1 = private unnamed_addr constant [14 x i8] c"out of memory\00", align 1
@GUC_check_errmsg_string = external global ptr, align 8

; Function Attrs: inlinehint nounwind uwtable
define internal ptr @MemoryContextSwitchTo(ptr noundef %0) #3 {
  %2 = alloca ptr, align 8
  %3 = alloca ptr, align 8
  store ptr %0, ptr %2, align 8
  call void @llvm.lifetime.start.p0(i64 8, ptr %3) #8
  %4 = load ptr, ptr @CurrentMemoryContext, align 8
  store ptr %4, ptr %3, align 8
  %5 = load ptr, ptr %2, align 8
  store ptr %5, ptr @CurrentMemoryContext, align 8
  %6 = load ptr, ptr %3, align 8
  call void @llvm.lifetime.end.p0(i64 8, ptr %3) #8
  ret ptr %6
}

; Function Attrs: nounwind uwtable
define dso_local ptr @load_tzoffsets(ptr noundef %0) #0 {
  %2 = alloca ptr, align 8
  %3 = alloca ptr, align 8
  %4 = alloca ptr, align 8
  %5 = alloca ptr, align 8
  %6 = alloca ptr, align 8
  %7 = alloca i32, align 4
  %8 = alloca i32, align 4
  %9 = alloca i32, align 4
  store ptr %0, ptr %2, align 8
  call void @llvm.lifetime.start.p0(i64 8, ptr %3) #8
  store ptr null, ptr %3, align 8
  call void @llvm.lifetime.start.p0(i64 8, ptr %4) #8
  call void @llvm.lifetime.start.p0(i64 8, ptr %5) #8
  call void @llvm.lifetime.start.p0(i64 8, ptr %6) #8
  call void @llvm.lifetime.start.p0(i64 4, ptr %7) #8
  call void @llvm.lifetime.start.p0(i64 4, ptr %8) #8
  br label %10

10:                                               ; preds = %1
  br label %11

11:                                               ; preds = %10
  br label %12

12:                                               ; preds = %11
  store i32 1, ptr %9, align 4
  %13 = load ptr, ptr @CurrentMemoryContext, align 8
  %14 = call ptr @AllocSetContextCreateInternal(ptr noundef %13, ptr noundef @.str, i64 noundef 0, i64 noundef 1024, i64 noundef 8192)
  store ptr %14, ptr %4, align 8
  %15 = load ptr, ptr %4, align 8
  %16 = call ptr @MemoryContextSwitchTo(ptr noundef %15)
  store ptr %16, ptr %5, align 8
  store i32 128, ptr %7, align 4
  %17 = load i32, ptr %7, align 4
  %18 = sext i32 %17 to i64
  %19 = mul i64 %18, 40
  %20 = call ptr @palloc(i64 noundef %19)
  store ptr %20, ptr %6, align 8
  %21 = load ptr, ptr %2, align 8
  %22 = call i32 @ParseTzFile(ptr noundef %21, i32 noundef 0, ptr noundef %6, ptr noundef %7, i32 noundef 0)
  store i32 %22, ptr %8, align 4
  %23 = load i32, ptr %8, align 4
  %24 = icmp sge i32 %23, 0
  br i1 %24, label %25, label %36

25:                                               ; preds = %12
  %26 = load ptr, ptr %6, align 8
  %27 = load i32, ptr %8, align 4
  %28 = call ptr @ConvertTimeZoneAbbrevs(ptr noundef %26, i32 noundef %27)
  store ptr %28, ptr %3, align 8
  %29 = load ptr, ptr %3, align 8
  %30 = icmp ne ptr %29, null
  br i1 %30, label %35, label %31

31:                                               ; preds = %25
  %32 = call ptr @__errno_location() #9
  %33 = load i32, ptr %32, align 4
  call void @pre_format_elog_string(i32 noundef %33, ptr noundef null)
  %34 = call ptr (ptr, ...) @format_elog_string(ptr noundef @.str.1)
  store ptr %34, ptr @GUC_check_errmsg_string, align 8
  br label %35

35:                                               ; preds = %31, %25
  br label %36

36:                                               ; preds = %35, %12
  %37 = load ptr, ptr %5, align 8
  %38 = call ptr @MemoryContextSwitchTo(ptr noundef %37)
  %39 = load ptr, ptr %4, align 8
  call void @MemoryContextDelete(ptr noundef %39)
  %40 = load ptr, ptr %3, align 8
  call void @llvm.lifetime.end.p0(i64 4, ptr %8) #8
  call void @llvm.lifetime.end.p0(i64 4, ptr %7) #8
  call void @llvm.lifetime.end.p0(i64 8, ptr %6) #8
  call void @llvm.lifetime.end.p0(i64 8, ptr %5) #8
  call void @llvm.lifetime.end.p0(i64 8, ptr %4) #8
  call void @llvm.lifetime.end.p0(i64 8, ptr %3) #8
  ret ptr %40
}