; Function Attrs: nounwind uwtable
define dso_local ptr @load_tzoffsets(ptr noundef %0) local_unnamed_addr #0 {
  %2 = alloca ptr, align 8
  %3 = alloca i32, align 4
  call void @llvm.lifetime.start.p0(i64 8, ptr nonnull %2) #9
  call void @llvm.lifetime.start.p0(i64 4, ptr nonnull %3) #9
  %4 = load ptr, ptr @CurrentMemoryContext, align 8
  %5 = tail call ptr @AllocSetContextCreateInternal(ptr noundef %4, ptr noundef nonnull @.str, i64 noundef 0, i64 noundef 1024, i64 noundef 8192) #9
  %6 = load ptr, ptr @CurrentMemoryContext, align 8
  store ptr %5, ptr @CurrentMemoryContext, align 8
  store i32 128, ptr %3, align 4
  %7 = tail call ptr @palloc(i64 noundef 5120) #9
  store ptr %7, ptr %2, align 8
  %8 = call fastcc i32 @ParseTzFile(ptr noundef %0, i32 noundef 0, ptr noundef %2, ptr noundef %3, i32 noundef 0)
  %9 = icmp sgt i32 %8, -1
  br i1 %9, label %10, label %17

10:                                               ; preds = %1
  %11 = load ptr, ptr %2, align 8
  %12 = tail call ptr @ConvertTimeZoneAbbrevs(ptr noundef %11, i32 noundef %8) #9
  %.not = icmp eq ptr %12, null
  br i1 %.not, label %13, label %17

13:                                               ; preds = %10
  %14 = tail call ptr @__errno_location() #10
  %15 = load i32, ptr %14, align 4
  tail call void @pre_format_elog_string(i32 noundef %15, ptr noundef null) #9
  %16 = tail call ptr (ptr, ...) @format_elog_string(ptr noundef nonnull @.str.1) #9
  store ptr %16, ptr @GUC_check_errmsg_string, align 8
  br label %17

17:                                               ; preds = %10, %13, %1
  %.0 = phi ptr [ %12, %10 ], [ null, %13 ], [ null, %1 ]
  store ptr %6, ptr @CurrentMemoryContext, align 8
  tail call void @MemoryContextDelete(ptr noundef %5) #9
  call void @llvm.lifetime.end.p0(i64 4, ptr nonnull %3) #9
  call void @llvm.lifetime.end.p0(i64 8, ptr nonnull %2) #9
  ret ptr %.0
}